target datalayout = "e-m:e-p270:32:32-p271:32:32-p272:64:64-i64:64-i128:128-f80:128-n8:16:32:64-S128"
target triple = "x86_64-pc-linux-gnu"

%struct._psqlSettings = type { ptr, i32, ptr, i8, ptr, ptr, %struct.printQueryOpt, ptr, ptr, ptr, i8, i8, i32, i32, ptr, ptr, i8, [4 x ptr], i8, i32, ptr, i8, i32, ptr, ptr, i64, i64, i8, ptr, ptr, ptr, i8, i8, i8, i8, i8, i8, i8, i32, i32, i32, i32, i32, i32, i32, i32, ptr, ptr, ptr, i32, i8, i32 }
%struct.printQueryOpt = type { %struct.printTableOpt, ptr, ptr, ptr, i8, ptr, i32 }
%struct.printTableOpt = type { i32, i16, i32, i32, i16, i16, i32, i8, i8, i8, i8, i64, ptr, %struct.separator, %struct.separator, [2 x i8], i8, ptr, i32, i32, i32, i32, i32, i32 }
%struct.separator = type { ptr, i8 }
%struct.PQExpBufferData = type { ptr, i64, i64 }

@pset = external global %struct._psqlSettings, align 8
@.str.1 = private unnamed_addr constant [7 x i8] c"Schema\00", align 1
@.str.2 = private unnamed_addr constant [5 x i8] c"Name\00", align 1
@.str.6 = private unnamed_addr constant [12 x i8] c"Description\00", align 1
@.str.9 = private unnamed_addr constant [10 x i8] c"n.nspname\00", align 1
@.str.111 = private unnamed_addr constant [15 x i8] c"ORDER BY 1, 2;\00", align 1
@.str.450 = private unnamed_addr constant [51 x i8] c"SELECT\0A  n.nspname as \22%s\22,\0A  d.dictname as \22%s\22,\0A\00", align 1
@.str.452 = private unnamed_addr constant [9 x i8] c"Template\00", align 1
@.str.453 = private unnamed_addr constant [13 x i8] c"Init options\00", align 1
@.str.454 = private unnamed_addr constant [59 x i8] c"  pg_catalog.obj_description(d.oid, 'pg_ts_dict') as \22%s\22\0A\00", align 1
@.str.455 = private unnamed_addr constant [93 x i8] c"FROM pg_catalog.pg_ts_dict d\0ALEFT JOIN pg_catalog.pg_namespace n ON n.oid = d.dictnamespace\0A\00", align 1
@.str.456 = private unnamed_addr constant [11 x i8] c"d.dictname\00", align 1
@.str.457 = private unnamed_addr constant [40 x i8] c"pg_catalog.pg_ts_dict_is_visible(d.oid)\00", align 1
@.str.458 = private unnamed_addr constant [33 x i8] c"List of text search dictionaries\00", align 1

; Function Attrs: nounwind uwtable
define dso_local zeroext i1 @listTSDictionaries(ptr noundef %0, i1 noundef zeroext %1) #0 {
  %3 = alloca i1, align 1
  %4 = alloca ptr, align 8
  %5 = alloca i8, align 1
  %6 = alloca %struct.PQExpBufferData, align 8
  %7 = alloca ptr, align 8
  %8 = alloca %struct.printQueryOpt, align 8
  %9 = alloca i32, align 4
  store ptr %0, ptr %4, align 8
  %10 = zext i1 %1 to i8
  store i8 %10, ptr %5, align 1
  call void @llvm.lifetime.start.p0(i64 24, ptr %6) #8
  call void @llvm.lifetime.start.p0(i64 8, ptr %7) #8
  call void @llvm.lifetime.start.p0(i64 168, ptr %8) #8
  call void @llvm.memcpy.p0.p0.i64(ptr align 8 %8, ptr align 8 getelementptr inbounds nuw (%struct._psqlSettings, ptr @pset, i32 0, i32 6), i64 168, i1 false)
  call void @initPQExpBuffer(ptr noundef %6)
  call void (ptr, ptr, ...) @printfPQExpBuffer(ptr noundef %6, ptr noundef @.str.450, ptr noundef @.str.1, ptr noundef @.str.2)
  %11 = load i8, ptr %5, align 1, !range !4, !noundef !5
  %12 = trunc i8 %11 to i1
  br i1 %12, label %13, label %14

13:                                               ; preds = %2
  call void (ptr, ptr, ...) @appendPQExpBuffer(ptr noundef %6, ptr noundef @.str.451, ptr noundef @.str.452, ptr noundef @.str.453)
  br label %14

14:                                               ; preds = %13, %2
  call void (ptr, ptr, ...) @appendPQExpBuffer(ptr noundef %6, ptr noundef @.str.454, ptr noundef @.str.6)
  call void @appendPQExpBufferStr(ptr noundef %6, ptr noundef @.str.455)
  %15 = load ptr, ptr %4, align 8
  %16 = call zeroext i1 @validateSQLNamePattern(ptr noundef %6, ptr noundef %15, i1 noundef zeroext false, i1 noundef zeroext false, ptr noundef @.str.9, ptr noundef @.str.456, ptr noundef null, ptr noundef @.str.457, ptr noundef null, i32 noundef 3)
  br i1 %16, label %18, label %17

17:                                               ; preds = %14
  call void @termPQExpBuffer(ptr noundef %6)
  store i1 false, ptr %3, align 1
  store i32 1, ptr %9, align 4
  br label %32

18:                                               ; preds = %14
  call void @appendPQExpBufferStr(ptr noundef %6, ptr noundef @.str.111)
  %19 = getelementptr inbounds nuw %struct.PQExpBufferData, ptr %6, i32 0, i32 0
  %20 = load ptr, ptr %19, align 8
  %21 = call ptr @PSQLexec(ptr noundef %20)
  store ptr %21, ptr %7, align 8
  call void @termPQExpBuffer(ptr noundef %6)
  %22 = load ptr, ptr %7, align 8
  %23 = icmp ne ptr %22, null
  br i1 %23, label %25, label %24

24:                                               ; preds = %18
  store i1 false, ptr %3, align 1
  store i32 1, ptr %9, align 4
  br label %32

25:                                               ; preds = %18
  %26 = getelementptr inbounds nuw %struct.printQueryOpt, ptr %8, i32 0, i32 2
  store ptr @.str.458, ptr %26, align 8
  %27 = getelementptr inbounds nuw %struct.printQueryOpt, ptr %8, i32 0, i32 4
  store i8 1, ptr %27, align 8
  %28 = load ptr, ptr %7, align 8
  %29 = load ptr, ptr getelementptr inbounds nuw (%struct._psqlSettings, ptr @pset, i32 0, i32 2), align 8
  %30 = load ptr, ptr getelementptr inbounds nuw (%struct._psqlSettings, ptr @pset, i32 0, i32 28), align 8
  call void @printQuery(ptr noundef %28, ptr noundef %8, ptr noundef %29, i1 noundef zeroext false, ptr noundef %30)
  %31 = load ptr, ptr %7, align 8
  call void @PQclear(ptr noundef %31)
  store i1 true, ptr %3, align 1
  store i32 1, ptr %9, align 4
  br label %32

32:                                               ; preds = %25, %24, %17
  call void @llvm.lifetime.end.p0(i64 168, ptr %8) #8
  call void @llvm.lifetime.end.p0(i64 8, ptr %7) #8
  call void @llvm.lifetime.end.p0(i64 24, ptr %6) #8
  %33 = load i1, ptr %3, align 1
  ret i1 %33
}