; Function Attrs: nounwind uwtable
define dso_local noundef zeroext i1 @listTSDictionaries(ptr noundef %0, i1 noundef zeroext %1) local_unnamed_addr #0 {
  %3 = alloca %struct.PQExpBufferData, align 8
  %4 = alloca %struct.printQueryOpt, align 8
  call void @llvm.lifetime.start.p0(i64 24, ptr nonnull %3) #8
  call void @llvm.lifetime.start.p0(i64 168, ptr nonnull %4) #8
  call void @llvm.memcpy.p0.p0.i64(ptr noundef nonnull align 8 dereferenceable(168) %4, ptr noundef nonnull align 8 dereferenceable(168) getelementptr inbounds nuw (i8, ptr @pset, i64 48), i64 168, i1 false)
  call void @initPQExpBuffer(ptr noundef nonnull %3) #8
  call void (ptr, ptr, ...) @printfPQExpBuffer(ptr noundef nonnull %3, ptr noundef nonnull @.str.450, ptr noundef nonnull @.str.1, ptr noundef nonnull @.str.2) #8
  br i1 %1, label %5, label %6

5:                                                ; preds = %2
  call void (ptr, ptr, ...) @appendPQExpBuffer(ptr noundef nonnull %3, ptr noundef nonnull @.str.451, ptr noundef nonnull @.str.452, ptr noundef nonnull @.str.453) #8
  br label %6

6:                                                ; preds = %5, %2
  call void (ptr, ptr, ...) @appendPQExpBuffer(ptr noundef nonnull %3, ptr noundef nonnull @.str.454, ptr noundef nonnull @.str.6) #8
  call void @appendPQExpBufferStr(ptr noundef nonnull %3, ptr noundef nonnull @.str.455) #8
  %7 = call fastcc zeroext i1 @validateSQLNamePattern(ptr noundef %3, ptr noundef %0, i1 noundef zeroext false, i1 noundef zeroext false, ptr noundef nonnull @.str.9, ptr noundef nonnull @.str.456, ptr noundef null, ptr noundef nonnull @.str.457, ptr noundef null, i32 noundef 3)
  br i1 %7, label %9, label %8

8:                                                ; preds = %6
  call void @termPQExpBuffer(ptr noundef nonnull %3) #8
  br label %17

9:                                                ; preds = %6
  call void @appendPQExpBufferStr(ptr noundef nonnull %3, ptr noundef nonnull @.str.111) #8
  %10 = load ptr, ptr %3, align 8
  %11 = call ptr @PSQLexec(ptr noundef %10) #8
  call void @termPQExpBuffer(ptr noundef nonnull %3) #8
  %.not = icmp eq ptr %11, null
  br i1 %.not, label %17, label %12

12:                                               ; preds = %9
  %13 = getelementptr inbounds nuw i8, ptr %4, i64 128
  store ptr @.str.458, ptr %13, align 8
  %14 = getelementptr inbounds nuw i8, ptr %4, i64 144
  store i8 1, ptr %14, align 8
  %15 = load ptr, ptr getelementptr inbounds nuw (i8, ptr @pset, i64 16), align 8
  %16 = load ptr, ptr getelementptr inbounds nuw (i8, ptr @pset, i64 376), align 8
  call void @printQuery(ptr noundef nonnull %11, ptr noundef nonnull %4, ptr noundef %15, i1 noundef zeroext false, ptr noundef %16) #8
  call void @PQclear(ptr noundef nonnull %11) #8
  br label %17

17:                                               ; preds = %9, %12, %8
  %.0 = phi i1 [ true, %12 ], [ false, %8 ], [ false, %9 ]
  call void @llvm.lifetime.end.p0(i64 168, ptr nonnull %4) #8
  call void @llvm.lifetime.end.p0(i64 24, ptr nonnull %3) #8
  ret i1 %.0
}